target datalayout = "e-m:e-p270:32:32-p271:32:32-p272:64:64-i64:64-i128:128-f80:128-n8:16:32:64-S128"
target triple = "x86_64-pc-linux-gnu"

%struct.FSMAddress = type { i32, i32 }
%struct.RelFileLocator = type { i32, i32, i32 }
%struct.PageHeaderData = type { %struct.PageXLogRecPtr, i16, i16, i16, i16, i16, i16, i32, [0 x %struct.ItemIdData] }
%struct.PageXLogRecPtr = type { i32, i32 }
%struct.ItemIdData = type { i32 }

@LocalBufferBlockPointers = external global ptr, align 8
@BufferBlocks = external global ptr, align 8

; Function Attrs: inlinehint nounwind uwtable
define internal ptr @BufferGetBlock(i32 noundef %0) #4 {
  %2 = alloca ptr, align 8
  %3 = alloca i32, align 4
  store i32 %0, ptr %3, align 4
  %4 = load i32, ptr %3, align 4
  %5 = icmp slt i32 %4, 0
  br i1 %5, label %6, label %14

6:                                                ; preds = %1
  %7 = load ptr, ptr @LocalBufferBlockPointers, align 8
  %8 = load i32, ptr %3, align 4
  %9 = sub i32 0, %8
  %10 = sub i32 %9, 1
  %11 = sext i32 %10 to i64
  %12 = getelementptr inbounds ptr, ptr %7, i64 %11
  %13 = load ptr, ptr %12, align 8
  store ptr %13, ptr %2, align 8
  br label %21

14:                                               ; preds = %1
  %15 = load ptr, ptr @BufferBlocks, align 8
  %16 = load i32, ptr %3, align 4
  %17 = sub i32 %16, 1
  %18 = sext i32 %17 to i64
  %19 = mul i64 %18, 8192
  %20 = getelementptr inbounds nuw i8, ptr %15, i64 %19
  store ptr %20, ptr %2, align 8
  br label %21

21:                                               ; preds = %14, %6
  %22 = load ptr, ptr %2, align 8
  ret ptr %22
}

; Function Attrs: inlinehint nounwind uwtable
define internal zeroext i1 @PageIsNew(ptr noundef %0) #4 {
  %2 = alloca ptr, align 8
  store ptr %0, ptr %2, align 8
  %3 = load ptr, ptr %2, align 8
  %4 = getelementptr inbounds nuw %struct.PageHeaderData, ptr %3, i32 0, i32 4
  %5 = load i16, ptr %4, align 2
  %6 = zext i16 %5 to i32
  %7 = icmp eq i32 %6, 0
  ret i1 %7
}

; Function Attrs: inlinehint nounwind uwtable
define internal ptr @BufferGetPage(i32 noundef %0) #4 {
  %2 = alloca i32, align 4
  store i32 %0, ptr %2, align 4
  %3 = load i32, ptr %2, align 4
  %4 = call ptr @BufferGetBlock(i32 noundef %3)
  ret ptr %4
}

; Function Attrs: nounwind uwtable
define internal i32 @fsm_logical_to_physical(i64 %0) #0 {
  %2 = alloca %struct.FSMAddress, align 4
  %3 = alloca i32, align 4
  %4 = alloca i32, align 4
  %5 = alloca i32, align 4
  store i64 %0, ptr %2, align 4
  call void @llvm.lifetime.start.p0(i64 4, ptr %3) #8
  call void @llvm.lifetime.start.p0(i64 4, ptr %4) #8
  call void @llvm.lifetime.start.p0(i64 4, ptr %5) #8
  %6 = getelementptr inbounds nuw %struct.FSMAddress, ptr %2, i32 0, i32 1
  %7 = load i32, ptr %6, align 4
  store i32 %7, ptr %4, align 4
  store i32 0, ptr %5, align 4
  br label %8

8:                                                ; preds = %18, %1
  %9 = load i32, ptr %5, align 4
  %10 = getelementptr inbounds nuw %struct.FSMAddress, ptr %2, i32 0, i32 0
  %11 = load i32, ptr %10, align 4
  %12 = icmp slt i32 %9, %11
  br i1 %12, label %13, label %21

13:                                               ; preds = %8
  %14 = load i32, ptr %4, align 4
  %15 = sext i32 %14 to i64
  %16 = mul i64 %15, 4069
  %17 = trunc i64 %16 to i32
  store i32 %17, ptr %4, align 4
  br label %18

18:                                               ; preds = %13
  %19 = load i32, ptr %5, align 4
  %20 = add i32 %19, 1
  store i32 %20, ptr %5, align 4
  br label %8, !llvm.loop !4

21:                                               ; preds = %8
  store i32 0, ptr %3, align 4
  store i32 0, ptr %5, align 4
  br label %22

22:                                               ; preds = %34, %21
  %23 = load i32, ptr %5, align 4
  %24 = icmp slt i32 %23, 3
  br i1 %24, label %25, label %37

25:                                               ; preds = %22
  %26 = load i32, ptr %4, align 4
  %27 = add i32 %26, 1
  %28 = load i32, ptr %3, align 4
  %29 = add i32 %28, %27
  store i32 %29, ptr %3, align 4
  %30 = load i32, ptr %4, align 4
  %31 = sext i32 %30 to i64
  %32 = udiv i64 %31, 4069
  %33 = trunc i64 %32 to i32
  store i32 %33, ptr %4, align 4
  br label %34

34:                                               ; preds = %25
  %35 = load i32, ptr %5, align 4
  %36 = add i32 %35, 1
  store i32 %36, ptr %5, align 4
  br label %22, !llvm.loop !6

37:                                               ; preds = %22
  %38 = getelementptr inbounds nuw %struct.FSMAddress, ptr %2, i32 0, i32 0
  %39 = load i32, ptr %38, align 4
  %40 = load i32, ptr %3, align 4
  %41 = sub i32 %40, %39
  store i32 %41, ptr %3, align 4
  %42 = load i32, ptr %3, align 4
  %43 = sub i32 %42, 1
  call void @llvm.lifetime.end.p0(i64 4, ptr %5) #8
  call void @llvm.lifetime.end.p0(i64 4, ptr %4) #8
  call void @llvm.lifetime.end.p0(i64 4, ptr %3) #8
  ret i32 %43
}

; Function Attrs: nounwind uwtable
define internal i64 @fsm_get_location(i32 noundef %0, ptr noundef %1) #0 {
  %3 = alloca %struct.FSMAddress, align 4
  %4 = alloca i32, align 4
  %5 = alloca ptr, align 8
  store i32 %0, ptr %4, align 4
  store ptr %1, ptr %5, align 8
  %6 = getelementptr inbounds nuw %struct.FSMAddress, ptr %3, i32 0, i32 0
  store i32 0, ptr %6, align 4
  %7 = load i32, ptr %4, align 4
  %8 = zext i32 %7 to i64
  %9 = udiv i64 %8, 4069
  %10 = trunc i64 %9 to i32
  %11 = getelementptr inbounds nuw %struct.FSMAddress, ptr %3, i32 0, i32 1
  store i32 %10, ptr %11, align 4
  %12 = load i32, ptr %4, align 4
  %13 = zext i32 %12 to i64
  %14 = urem i64 %13, 4069
  %15 = trunc i64 %14 to i16
  %16 = load ptr, ptr %5, align 8
  store i16 %15, ptr %16, align 2
  %17 = load i64, ptr %3, align 4
  ret i64 %17
}

; Function Attrs: nounwind uwtable
define internal zeroext i8 @fsm_space_avail_to_cat(i64 noundef %0) #0 {
  %2 = alloca i8, align 1
  %3 = alloca i64, align 8
  %4 = alloca i32, align 4
  %5 = alloca i32, align 4
  store i64 %0, ptr %3, align 8
  call void @llvm.lifetime.start.p0(i64 4, ptr %4) #8
  %6 = load i64, ptr %3, align 8
  %7 = icmp uge i64 %6, 8160
  br i1 %7, label %8, label %9

8:                                                ; preds = %1
  store i8 -1, ptr %2, align 1
  store i32 1, ptr %5, align 4
  br label %19

9:                                                ; preds = %1
  %10 = load i64, ptr %3, align 8
  %11 = udiv i64 %10, 32
  %12 = trunc i64 %11 to i32
  store i32 %12, ptr %4, align 4
  %13 = load i32, ptr %4, align 4
  %14 = icmp sgt i32 %13, 254
  br i1 %14, label %15, label %16

15:                                               ; preds = %9
  store i32 254, ptr %4, align 4
  br label %16

16:                                               ; preds = %15, %9
  %17 = load i32, ptr %4, align 4
  %18 = trunc i32 %17 to i8
  store i8 %18, ptr %2, align 1
  store i32 1, ptr %5, align 4
  br label %19

19:                                               ; preds = %16, %8
  call void @llvm.lifetime.end.p0(i64 4, ptr %4) #8
  %20 = load i8, ptr %2, align 1
  ret i8 %20
}

; Function Attrs: nounwind uwtable
define dso_local void @XLogRecordPageWithFreeSpace(i64 %0, i32 %1, i32 noundef %2, i64 noundef %3) #0 {
  %5 = alloca %struct.RelFileLocator, align 4
  %6 = alloca { i64, i32 }, align 4
  %7 = alloca i32, align 4
  %8 = alloca i64, align 8
  %9 = alloca i32, align 4
  %10 = alloca %struct.FSMAddress, align 4
  %11 = alloca i16, align 2
  %12 = alloca i32, align 4
  %13 = alloca i32, align 4
  %14 = alloca ptr, align 8
  %15 = alloca %struct.FSMAddress, align 4
  %16 = alloca { i64, i32 }, align 4
  %17 = getelementptr inbounds nuw { i64, i32 }, ptr %6, i32 0, i32 0
  store i64 %0, ptr %17, align 4
  %18 = getelementptr inbounds nuw { i64, i32 }, ptr %6, i32 0, i32 1
  store i32 %1, ptr %18, align 4
  call void @llvm.memcpy.p0.p0.i64(ptr align 4 %5, ptr align 4 %6, i64 12, i1 false)
  store i32 %2, ptr %7, align 4
  store i64 %3, ptr %8, align 8
  call void @llvm.lifetime.start.p0(i64 4, ptr %9) #8
  %19 = load i64, ptr %8, align 8
  %20 = call zeroext i8 @fsm_space_avail_to_cat(i64 noundef %19)
  %21 = zext i8 %20 to i32
  store i32 %21, ptr %9, align 4
  call void @llvm.lifetime.start.p0(i64 8, ptr %10) #8
  call void @llvm.lifetime.start.p0(i64 2, ptr %11) #8
  call void @llvm.lifetime.start.p0(i64 4, ptr %12) #8
  call void @llvm.lifetime.start.p0(i64 4, ptr %13) #8
  call void @llvm.lifetime.start.p0(i64 8, ptr %14) #8
  call void @llvm.lifetime.start.p0(i64 8, ptr %15) #8
  %22 = load i32, ptr %7, align 4
  %23 = call i64 @fsm_get_location(i32 noundef %22, ptr noundef %11)
  store i64 %23, ptr %15, align 4
  call void @llvm.memcpy.p0.p0.i64(ptr align 4 %10, ptr align 4 %15, i64 8, i1 false)
  call void @llvm.lifetime.end.p0(i64 8, ptr %15) #8
  %24 = load i64, ptr %10, align 4
  %25 = call i32 @fsm_logical_to_physical(i64 %24)
  store i32 %25, ptr %12, align 4
  %26 = load i32, ptr %12, align 4
  call void @llvm.memcpy.p0.p0.i64(ptr align 4 %16, ptr align 4 %5, i64 12, i1 false)
  %27 = getelementptr inbounds nuw { i64, i32 }, ptr %16, i32 0, i32 0
  %28 = load i64, ptr %27, align 4
  %29 = getelementptr inbounds nuw { i64, i32 }, ptr %16, i32 0, i32 1
  %30 = load i32, ptr %29, align 4
  %31 = call i32 @XLogReadBufferExtended(i64 %28, i32 %30, i32 noundef 1, i32 noundef %26, i32 noundef 3, i32 noundef 0)
  store i32 %31, ptr %13, align 4
  %32 = load i32, ptr %13, align 4
  call void @LockBuffer(i32 noundef %32, i32 noundef 2)
  %33 = load i32, ptr %13, align 4
  %34 = call ptr @BufferGetPage(i32 noundef %33)
  store ptr %34, ptr %14, align 8
  %35 = load ptr, ptr %14, align 8
  %36 = call zeroext i1 @PageIsNew(ptr noundef %35)
  br i1 %36, label %37, label %39

37:                                               ; preds = %4
  %38 = load ptr, ptr %14, align 8
  call void @PageInit(ptr noundef %38, i64 noundef 8192, i64 noundef 0)
  br label %39

39:                                               ; preds = %37, %4
  %40 = load ptr, ptr %14, align 8
  %41 = load i16, ptr %11, align 2
  %42 = zext i16 %41 to i32
  %43 = load i32, ptr %9, align 4
  %44 = trunc i32 %43 to i8
  %45 = call zeroext i1 @fsm_set_avail(ptr noundef %40, i32 noundef %42, i8 noundef zeroext %44)
  br i1 %45, label %46, label %48

46:                                               ; preds = %39
  %47 = load i32, ptr %13, align 4
  call void @MarkBufferDirtyHint(i32 noundef %47, i1 noundef zeroext false)
  br label %48

48:                                               ; preds = %46, %39
  %49 = load i32, ptr %13, align 4
  call void @UnlockReleaseBuffer(i32 noundef %49)
  call void @llvm.lifetime.end.p0(i64 8, ptr %14) #8
  call void @llvm.lifetime.end.p0(i64 4, ptr %13) #8
  call void @llvm.lifetime.end.p0(i64 4, ptr %12) #8
  call void @llvm.lifetime.end.p0(i64 2, ptr %11) #8
  call void @llvm.lifetime.end.p0(i64 8, ptr %10) #8
  call void @llvm.lifetime.end.p0(i64 4, ptr %9) #8
  ret void
}