; Function Attrs: nounwind uwtable
define dso_local void @XLogRecordPageWithFreeSpace(i64 %0, i32 %1, i32 noundef %2, i64 noundef %3) local_unnamed_addr #0 {
.preheader.i:
  %4 = lshr i64 %3, 5
  %5 = trunc nuw i64 %4 to i8
  %6 = udiv i32 %2, 4069
  %7 = urem i32 %2, 4069
  %.sroa.2.0.insert.ext.i = zext nneg i32 %6 to i64
  br label %8

8:                                                ; preds = %8, %.preheader.i
  %.119.i = phi i32 [ 0, %.preheader.i ], [ %12, %8 ]
  %.112.in18.i = phi i64 [ %.sroa.2.0.insert.ext.i, %.preheader.i ], [ %11, %8 ]
  %.01317.i = phi i32 [ 0, %.preheader.i ], [ %10, %8 ]
  %.112.i = trunc nuw nsw i64 %.112.in18.i to i32
  %9 = add i32 %.01317.i, %.112.i
  %10 = add i32 %9, 1
  %11 = udiv i64 %.112.in18.i, 4069
  %12 = add nuw nsw i32 %.119.i, 1
  %exitcond21.not.i = icmp eq i32 %12, 3
  br i1 %exitcond21.not.i, label %fsm_logical_to_physical.exit, label %8, !llvm.loop !5

fsm_logical_to_physical.exit:                     ; preds = %8
  %13 = icmp ugt i64 %3, 8159
  %.0.i = select i1 %13, i8 -1, i8 %5
  %14 = tail call i32 @XLogReadBufferExtended(i64 %0, i32 %1, i32 noundef 1, i32 noundef %9, i32 noundef 3, i32 noundef 0) #8
  tail call void @LockBuffer(i32 noundef %14, i32 noundef 2) #8
  %15 = icmp slt i32 %14, 0
  br i1 %15, label %16, label %22

16:                                               ; preds = %fsm_logical_to_physical.exit
  %17 = load ptr, ptr @LocalBufferBlockPointers, align 8
  %18 = xor i32 %14, -1
  %19 = zext nneg i32 %18 to i64
  %20 = getelementptr inbounds nuw ptr, ptr %17, i64 %19
  %21 = load ptr, ptr %20, align 8
  br label %BufferGetPage.exit

22:                                               ; preds = %fsm_logical_to_physical.exit
  %23 = load ptr, ptr @BufferBlocks, align 8
  %24 = add nsw i32 %14, -1
  %25 = sext i32 %24 to i64
  %26 = shl nsw i64 %25, 13
  %27 = getelementptr inbounds nuw i8, ptr %23, i64 %26
  br label %BufferGetPage.exit

BufferGetPage.exit:                               ; preds = %16, %22
  %.0.i.i = phi ptr [ %21, %16 ], [ %27, %22 ]
  %28 = getelementptr i8, ptr %.0.i.i, i64 14
  %.val = load i16, ptr %28, align 2
  %29 = icmp eq i16 %.val, 0
  br i1 %29, label %30, label %31

30:                                               ; preds = %BufferGetPage.exit
  tail call void @PageInit(ptr noundef nonnull %.0.i.i, i64 noundef 8192, i64 noundef 0) #8
  br label %31

31:                                               ; preds = %30, %BufferGetPage.exit
  %32 = tail call zeroext i1 @fsm_set_avail(ptr noundef nonnull %.0.i.i, i32 noundef %7, i8 noundef zeroext %.0.i) #8
  br i1 %32, label %33, label %34

33:                                               ; preds = %31
  tail call void @MarkBufferDirtyHint(i32 noundef %14, i1 noundef zeroext false) #8
  br label %34

34:                                               ; preds = %33, %31
  tail call void @UnlockReleaseBuffer(i32 noundef %14) #8
  ret void
}